; Function Attrs: mustprogress uwtable
define hidden noundef range(i32 -100, 1) i32 @_ZN4ncnn4Bias10load_modelERKNS_8ModelBinE(ptr noundef nonnull align 8 dereferenceable(288) %0, ptr noundef nonnull align 8 dereferenceable(8) %1) unnamed_addr #1 align 2 personality ptr @__gxx_personality_v0 {
  %3 = alloca %"class.ncnn::Mat", align 8
  call void @llvm.lifetime.start.p0(i64 72, ptr nonnull %3) #10
  %4 = getelementptr inbounds nuw i8, ptr %0, i64 208
  %5 = load i32, ptr %4, align 8, !tbaa !18
  %6 = load ptr, ptr %1, align 8, !tbaa !4
  %7 = getelementptr inbounds nuw i8, ptr %6, i64 16
  %8 = load ptr, ptr %7, align 8
  call void %8(ptr dead_on_unwind nonnull writable sret(%"class.ncnn::Mat") align 8 %3, ptr noundef nonnull align 8 dereferenceable(8) %1, i32 noundef %5, i32 noundef 1)
  %9 = getelementptr inbounds nuw i8, ptr %0, i64 216
  %10 = icmp eq ptr %9, %3
  %.phi.trans.insert = getelementptr inbounds nuw i8, ptr %3, i64 8
  %.pre = load ptr, ptr %.phi.trans.insert, align 8, !tbaa !7
  br i1 %10, label %_ZN4ncnn3MataSERKS0_.exit, label %11

11:                                               ; preds = %2
  %.not.i = icmp eq ptr %.pre, null
  br i1 %.not.i, label %14, label %12

12:                                               ; preds = %11
  %13 = atomicrmw add ptr %.pre, i32 1 acq_rel, align 4
  br label %14

14:                                               ; preds = %12, %11
  %15 = getelementptr inbounds nuw i8, ptr %0, i64 224
  %16 = load ptr, ptr %15, align 8, !tbaa !7
  %.not.i11 = icmp eq ptr %16, null
  br i1 %.not.i11, label %.noexc, label %17

17:                                               ; preds = %14
  %18 = atomicrmw add ptr %16, i32 -1 acq_rel, align 4
  %19 = icmp eq i32 %18, 1
  br i1 %19, label %20, label %.noexc

20:                                               ; preds = %17
  %21 = getelementptr inbounds nuw i8, ptr %0, i64 248
  %22 = load ptr, ptr %21, align 8, !tbaa !15
  %.not3.i12 = icmp eq ptr %22, null
  %23 = load ptr, ptr %9, align 8, !tbaa !16
  br i1 %.not3.i12, label %28, label %24

24:                                               ; preds = %20
  %25 = load ptr, ptr %22, align 8, !tbaa !4
  %26 = getelementptr inbounds nuw i8, ptr %25, i64 24
  %27 = load ptr, ptr %26, align 8
  invoke void %27(ptr noundef nonnull align 8 dereferenceable(8) %22, ptr noundef %23)
          to label %.noexc unwind label %87

28:                                               ; preds = %20
  %.not.i15 = icmp eq ptr %23, null
  br i1 %.not.i15, label %.noexc, label %29

29:                                               ; preds = %28
  call void @free(ptr noundef nonnull %23) #10
  br label %.noexc

.noexc:                                           ; preds = %17, %14, %24, %28, %29
  %30 = getelementptr inbounds nuw i8, ptr %0, i64 232
  %31 = getelementptr inbounds nuw i8, ptr %0, i64 240
  %32 = getelementptr inbounds nuw i8, ptr %0, i64 256
  %33 = getelementptr inbounds nuw i8, ptr %0, i64 260
  %34 = getelementptr inbounds nuw i8, ptr %0, i64 264
  %35 = getelementptr inbounds nuw i8, ptr %0, i64 268
  %36 = getelementptr inbounds nuw i8, ptr %0, i64 272
  %37 = getelementptr inbounds nuw i8, ptr %0, i64 280
  %38 = load ptr, ptr %3, align 8, !tbaa !16
  store ptr %38, ptr %9, align 8, !tbaa !16
  %39 = load ptr, ptr %.phi.trans.insert, align 8, !tbaa !7
  store ptr %39, ptr %15, align 8, !tbaa !7
  %40 = getelementptr inbounds nuw i8, ptr %3, i64 16
  %41 = load i64, ptr %40, align 8, !tbaa !34
  store i64 %41, ptr %30, align 8, !tbaa !34
  %42 = getelementptr inbounds nuw i8, ptr %3, i64 24
  %43 = load i32, ptr %42, align 8, !tbaa !35
  store i32 %43, ptr %31, align 8, !tbaa !35
  %44 = getelementptr inbounds nuw i8, ptr %3, i64 32
  %45 = load ptr, ptr %44, align 8, !tbaa !15
  %46 = getelementptr inbounds nuw i8, ptr %0, i64 248
  store ptr %45, ptr %46, align 8, !tbaa !15
  %47 = getelementptr inbounds nuw i8, ptr %3, i64 40
  %48 = load i32, ptr %47, align 8, !tbaa !36
  store i32 %48, ptr %32, align 8, !tbaa !36
  %49 = getelementptr inbounds nuw i8, ptr %3, i64 44
  %50 = load i32, ptr %49, align 4, !tbaa !37
  store i32 %50, ptr %33, align 4, !tbaa !37
  %51 = getelementptr inbounds nuw i8, ptr %3, i64 48
  %52 = load i32, ptr %51, align 8, !tbaa !38
  store i32 %52, ptr %34, align 8, !tbaa !38
  %53 = getelementptr inbounds nuw i8, ptr %3, i64 52
  %54 = load i32, ptr %53, align 4, !tbaa !39
  store i32 %54, ptr %35, align 4, !tbaa !39
  %55 = getelementptr inbounds nuw i8, ptr %3, i64 56
  %56 = load i32, ptr %55, align 8, !tbaa !40
  store i32 %56, ptr %36, align 8, !tbaa !40
  %57 = getelementptr inbounds nuw i8, ptr %3, i64 64
  %58 = load i64, ptr %57, align 8, !tbaa !17
  store i64 %58, ptr %37, align 8, !tbaa !17
  br label %_ZN4ncnn3MataSERKS0_.exit

_ZN4ncnn3MataSERKS0_.exit:                        ; preds = %2, %.noexc
  %59 = phi ptr [ %39, %.noexc ], [ %.pre, %2 ]
  %.not.i7 = icmp eq ptr %59, null
  br i1 %.not.i7, label %_ZN4ncnn3MatD2Ev.exit, label %60

60:                                               ; preds = %_ZN4ncnn3MataSERKS0_.exit
  %61 = atomicrmw add ptr %59, i32 -1 acq_rel, align 4
  %62 = icmp eq i32 %61, 1
  br i1 %62, label %63, label %_ZN4ncnn3MatD2Ev.exit

63:                                               ; preds = %60
  %64 = getelementptr inbounds nuw i8, ptr %3, i64 32
  %65 = load ptr, ptr %64, align 8, !tbaa !15
  %.not3.i8 = icmp eq ptr %65, null
  %66 = load ptr, ptr %3, align 8, !tbaa !16
  br i1 %.not3.i8, label %71, label %67

67:                                               ; preds = %63
  %68 = load ptr, ptr %65, align 8, !tbaa !4
  %69 = getelementptr inbounds nuw i8, ptr %68, i64 24
  %70 = load ptr, ptr %69, align 8
  invoke void %70(ptr noundef nonnull align 8 dereferenceable(8) %65, ptr noundef %66)
          to label %_ZN4ncnn3MatD2Ev.exit unwind label %73

71:                                               ; preds = %63
  %.not.i16 = icmp eq ptr %66, null
  br i1 %.not.i16, label %_ZN4ncnn3MatD2Ev.exit, label %72

72:                                               ; preds = %71
  call void @free(ptr noundef nonnull %66) #10
  br label %_ZN4ncnn3MatD2Ev.exit

73:                                               ; preds = %67
  %74 = landingpad { ptr, i32 }
          catch ptr null
  %75 = extractvalue { ptr, i32 } %74, 0
  call void @__clang_call_terminate(ptr %75) #14
  unreachable

_ZN4ncnn3MatD2Ev.exit:                            ; preds = %60, %_ZN4ncnn3MataSERKS0_.exit, %67, %71, %72
  call void @llvm.lifetime.end.p0(i64 72, ptr nonnull %3) #10
  %76 = load ptr, ptr %9, align 8, !tbaa !16
  %77 = icmp eq ptr %76, null
  br i1 %77, label %_ZNK4ncnn3Mat5emptyEv.exit.thread, label %_ZNK4ncnn3Mat5emptyEv.exit

_ZNK4ncnn3Mat5emptyEv.exit:                       ; preds = %_ZN4ncnn3MatD2Ev.exit
  %78 = getelementptr inbounds nuw i8, ptr %0, i64 280
  %79 = load i64, ptr %78, align 8, !tbaa !17
  %80 = getelementptr inbounds nuw i8, ptr %0, i64 272
  %81 = load i32, ptr %80, align 8, !tbaa !40
  %82 = sext i32 %81 to i64
  %83 = mul i64 %79, %82
  %.fr = freeze i64 %83
  %84 = icmp eq i64 %.fr, 0
  br i1 %84, label %_ZNK4ncnn3Mat5emptyEv.exit.thread, label %85

_ZNK4ncnn3Mat5emptyEv.exit.thread:                ; preds = %_ZN4ncnn3MatD2Ev.exit, %_ZNK4ncnn3Mat5emptyEv.exit
  br label %85

85:                                               ; preds = %_ZNK4ncnn3Mat5emptyEv.exit, %_ZNK4ncnn3Mat5emptyEv.exit.thread
  %86 = phi i32 [ -100, %_ZNK4ncnn3Mat5emptyEv.exit.thread ], [ 0, %_ZNK4ncnn3Mat5emptyEv.exit ]
  ret i32 %86

87:                                               ; preds = %24
  %88 = landingpad { ptr, i32 }
          cleanup
  %89 = load ptr, ptr %.phi.trans.insert, align 8, !tbaa !7
  %.not.i5 = icmp eq ptr %89, null
  br i1 %.not.i5, label %_ZN4ncnn3MatD2Ev.exit4, label %90

90:                                               ; preds = %87
  %91 = atomicrmw add ptr %89, i32 -1 acq_rel, align 4
  %92 = icmp eq i32 %91, 1
  br i1 %92, label %93, label %_ZN4ncnn3MatD2Ev.exit4

93:                                               ; preds = %90
  %94 = getelementptr inbounds nuw i8, ptr %3, i64 32
  %95 = load ptr, ptr %94, align 8, !tbaa !15
  %.not3.i = icmp eq ptr %95, null
  %96 = load ptr, ptr %3, align 8, !tbaa !16
  br i1 %.not3.i, label %101, label %97

97:                                               ; preds = %93
  %98 = load ptr, ptr %95, align 8, !tbaa !4
  %99 = getelementptr inbounds nuw i8, ptr %98, i64 24
  %100 = load ptr, ptr %99, align 8
  invoke void %100(ptr noundef nonnull align 8 dereferenceable(8) %95, ptr noundef %96)
          to label %_ZN4ncnn3MatD2Ev.exit4 unwind label %103

101:                                              ; preds = %93
  %.not.i18 = icmp eq ptr %96, null
  br i1 %.not.i18, label %_ZN4ncnn3MatD2Ev.exit4, label %102

102:                                              ; preds = %101
  call void @free(ptr noundef nonnull %96) #10
  br label %_ZN4ncnn3MatD2Ev.exit4

103:                                              ; preds = %97
  %104 = landingpad { ptr, i32 }
          catch ptr null
  %105 = extractvalue { ptr, i32 } %104, 0
  call void @__clang_call_terminate(ptr %105) #14
  unreachable

_ZN4ncnn3MatD2Ev.exit4:                           ; preds = %90, %87, %97, %101, %102
  call void @llvm.lifetime.end.p0(i64 72, ptr nonnull %3) #10
  resume { ptr, i32 } %88
}